; Function Attrs: mustprogress nofree norecurse nosync nounwind willreturn memory(argmem: readwrite) uwtable
define void @_ZN6LibRaw19process_Sony_0x9406EPht(ptr noundef nonnull writeonly align 8 captures(none) dereferenceable(767680) %0, ptr noundef readonly captures(none) %1, i16 noundef zeroext %2) local_unnamed_addr #5 align 2 {
  %4 = icmp ult i16 %2, 6
  br i1 %4, label %21, label %5

5:                                                ; preds = %3
  %6 = load i8, ptr %1, align 1, !tbaa !101
  switch i8 %6, label %21 [
    i8 27, label %7
    i8 8, label %7
    i8 1, label %7
  ]

7:                                                ; preds = %5, %5, %5
  %8 = getelementptr inbounds nuw i8, ptr %1, i64 2
  %9 = load i8, ptr %8, align 1, !tbaa !101
  switch i8 %9, label %21 [
    i8 27, label %10
    i8 8, label %10
  ]

10:                                               ; preds = %7, %7
  %11 = getelementptr inbounds nuw i8, ptr %1, i64 5
  %12 = load i8, ptr %11, align 1, !tbaa !101
  %13 = zext i8 %12 to i64
  %14 = getelementptr inbounds nuw [257 x i8], ptr @_ZL16SonySubstitution, i64 0, i64 %13
  %15 = load i8, ptr %14, align 1, !tbaa !101
  %16 = zext i8 %15 to i32
  %17 = add nsw i32 %16, -32
  %18 = sitofp i32 %17 to float
  %19 = fmul reassoc nsz arcp contract afn float %18, 0x3FE1C71C80000000
  %20 = getelementptr inbounds nuw i8, ptr %0, i64 4724
  store float %19, ptr %20, align 4, !tbaa !102
  br label %21

21:                                               ; preds = %10, %5, %7, %3
  ret void
}